(dp0
S'verbose'
p1
I01
sS'max_iter'
p2
I201
sS'n_modes'
p3
I4
sS'batch_size'
p4
I1000
sS'test_after'
p5
I2
sS'n_components'
p6
I50
sS'tol'
p7
F0.0001
sS'debug'
p8
I00
sS'alpha'
p9
F0.1
sS'smoothness'
p10
I100
s.